target datalayout = "e-m:e-p270:32:32-p271:32:32-p272:64:64-i64:64-i128:128-f80:128-n8:16:32:64-S128"
target triple = "x86_64-pc-linux-gnu"

; Function Attrs: mustprogress nounwind uwtable
define noundef i32 @_Z20gmx_string_hash_funcPKcj(ptr noundef %0, i32 noundef %1) #1 {
  %3 = alloca ptr, align 8
  %4 = alloca i32, align 4
  %5 = alloca i32, align 4
  store ptr %0, ptr %3, align 8, !tbaa !4
  store i32 %1, ptr %4, align 4, !tbaa !9
  call void @llvm.lifetime.start.p0(i64 4, ptr %5) #13
  store i32 0, ptr %5, align 4, !tbaa !9
  br label %6

6:                                                ; preds = %24, %2
  %7 = load ptr, ptr %3, align 8, !tbaa !4
  %8 = getelementptr inbounds nuw i8, ptr %7, i32 1
  store ptr %8, ptr %3, align 8, !tbaa !4
  %9 = load i8, ptr %7, align 1, !tbaa !11
  %10 = sext i8 %9 to i32
  %11 = call i32 @toupper(i32 noundef %10) #14
  store i32 %11, ptr %5, align 4, !tbaa !9
  %12 = icmp ne i32 %11, 0
  br i1 %12, label %13, label %25

13:                                               ; preds = %6
  %14 = load i32, ptr %5, align 4, !tbaa !9
  %15 = call i32 @isalnum(i32 noundef %14) #14
  %16 = icmp ne i32 %15, 0
  br i1 %16, label %17, label %24

17:                                               ; preds = %13
  %18 = load i32, ptr %4, align 4, !tbaa !9
  %19 = shl i32 %18, 5
  %20 = load i32, ptr %4, align 4, !tbaa !9
  %21 = add i32 %19, %20
  %22 = load i32, ptr %5, align 4, !tbaa !9
  %23 = xor i32 %21, %22
  store i32 %23, ptr %4, align 4, !tbaa !9
  br label %24

24:                                               ; preds = %17, %13
  br label %6, !llvm.loop !82

25:                                               ; preds = %6
  %26 = load i32, ptr %4, align 4, !tbaa !9
  call void @llvm.lifetime.end.p0(i64 4, ptr %5) #13
  ret i32 %26
}