; Function Attrs: mustprogress nofree nounwind willreturn memory(read) uwtable
define noundef i32 @_Z20gmx_string_hash_funcPKcj(ptr noundef readonly captures(none) %0, i32 noundef %1) local_unnamed_addr #14 {
  %3 = load i8, ptr %0, align 1, !tbaa !4
  %4 = sext i8 %3 to i32
  %5 = tail call i32 @toupper(i32 noundef %4) #24
  %.not8 = icmp eq i32 %5, 0
  br i1 %.not8, label %._crit_edge, label %.lr.ph

.lr.ph:                                           ; preds = %2, %.lr.ph
  %6 = phi i32 [ %13, %.lr.ph ], [ %5, %2 ]
  %.010 = phi i32 [ %.1, %.lr.ph ], [ %1, %2 ]
  %.059 = phi ptr [ %7, %.lr.ph ], [ %0, %2 ]
  %7 = getelementptr inbounds nuw i8, ptr %.059, i64 1
  %8 = tail call i32 @isalnum(i32 noundef %6) #24
  %.not7 = icmp eq i32 %8, 0
  %9 = mul i32 %.010, 33
  %10 = xor i32 %6, %9
  %.1 = select i1 %.not7, i32 %.010, i32 %10
  %11 = load i8, ptr %7, align 1, !tbaa !4
  %12 = sext i8 %11 to i32
  %13 = tail call i32 @toupper(i32 noundef %12) #24
  %.not = icmp eq i32 %13, 0
  br i1 %.not, label %._crit_edge, label %.lr.ph, !llvm.loop !28

._crit_edge:                                      ; preds = %.lr.ph, %2
  %.0.lcssa = phi i32 [ %1, %2 ], [ %.1, %.lr.ph ]
  ret i32 %.0.lcssa
}